; Function Attrs: mustprogress uwtable
define internal void @"_ZNSt17_Function_handlerIFvRN19OpenColorIO_v2_5dev10OpRcPtrVecEEZNS0_4ACES11RegisterAllERNS0_28BuiltinTransformRegistryImplEE4$_15E9_M_invokeERKSt9_Any_dataS2_"(ptr nonnull readnone align 8 captures(none) %0, ptr noundef nonnull align 8 dereferenceable(144) %1) #3 align 2 personality ptr @__gxx_personality_v0 {
  %3 = alloca %"class.std::vector.13", align 8
  tail call void @_ZN19OpenColorIO_v2_5dev11ACES_OUTPUT25Generate_RRT_preamble_opsERNS_10OpRcPtrVecE(ptr noundef nonnull align 8 dereferenceable(144) %1)
  tail call void @_ZN19OpenColorIO_v2_5dev11ACES_OUTPUT22Generate_tonecurve_opsERNS_10OpRcPtrVecE(ptr noundef nonnull align 8 dereferenceable(144) %1)
  call void @llvm.lifetime.start.p0(i64 24, ptr nonnull %3) #23
  call void @llvm.memset.p0.i64(ptr noundef nonnull align 8 dereferenceable(24) %3, i8 0, i64 24, i1 false)
  invoke void @_ZN19OpenColorIO_v2_5dev21CreateFixedFunctionOpERNS_10OpRcPtrVecENS_19FixedFunctionOpData5StyleERKSt6vectorIdSaIdEE(ptr noundef nonnull align 8 dereferenceable(144) %1, i32 noundef 8, ptr noundef nonnull align 8 dereferenceable(24) %3)
          to label %4 unwind label %12

4:                                                ; preds = %2
  %5 = load ptr, ptr %3, align 8, !tbaa !18
  %.not.i.i.i.i.i.i.i = icmp eq ptr %5, null
  br i1 %.not.i.i.i.i.i.i.i, label %"_ZSt10__invoke_rIvRZN19OpenColorIO_v2_5dev4ACES11RegisterAllERNS0_28BuiltinTransformRegistryImplEE4$_15JRNS0_10OpRcPtrVecEEENSt9enable_ifIXsr6__and_ISt7is_voidIT_ESt14__is_invocableIT0_JDpT1_EEEE5valueESA_E4typeEOSD_DpOSE_.exit", label %6

6:                                                ; preds = %4
  %7 = getelementptr inbounds nuw i8, ptr %3, i64 16
  %8 = load ptr, ptr %7, align 8, !tbaa !21
  %9 = ptrtoint ptr %8 to i64
  %10 = ptrtoint ptr %5 to i64
  %11 = sub i64 %9, %10
  call void @_ZdlPvm(ptr noundef nonnull %5, i64 noundef %11) #24
  br label %"_ZSt10__invoke_rIvRZN19OpenColorIO_v2_5dev4ACES11RegisterAllERNS0_28BuiltinTransformRegistryImplEE4$_15JRNS0_10OpRcPtrVecEEENSt9enable_ifIXsr6__and_ISt7is_voidIT_ESt14__is_invocableIT0_JDpT1_EEEE5valueESA_E4typeEOSD_DpOSE_.exit"

12:                                               ; preds = %2
  %13 = landingpad { ptr, i32 }
          cleanup
  %14 = load ptr, ptr %3, align 8, !tbaa !18
  %.not.i.i.i3.i.i.i.i = icmp eq ptr %14, null
  br i1 %.not.i.i.i3.i.i.i.i, label %_ZNSt6vectorIdSaIdEED2Ev.exit4.i.i.i.i, label %15

15:                                               ; preds = %12
  %16 = getelementptr inbounds nuw i8, ptr %3, i64 16
  %17 = load ptr, ptr %16, align 8, !tbaa !21
  %18 = ptrtoint ptr %17 to i64
  %19 = ptrtoint ptr %14 to i64
  %20 = sub i64 %18, %19
  call void @_ZdlPvm(ptr noundef nonnull %14, i64 noundef %20) #24
  br label %_ZNSt6vectorIdSaIdEED2Ev.exit4.i.i.i.i

_ZNSt6vectorIdSaIdEED2Ev.exit4.i.i.i.i:           ; preds = %15, %12
  call void @llvm.lifetime.end.p0(i64 24, ptr nonnull %3) #23
  resume { ptr, i32 } %13

"_ZSt10__invoke_rIvRZN19OpenColorIO_v2_5dev4ACES11RegisterAllERNS0_28BuiltinTransformRegistryImplEE4$_15JRNS0_10OpRcPtrVecEEENSt9enable_ifIXsr6__and_ISt7is_voidIT_ESt14__is_invocableIT0_JDpT1_EEEE5valueESA_E4typeEOSD_DpOSE_.exit": ; preds = %4, %6
  call void @llvm.lifetime.end.p0(i64 24, ptr nonnull %3) #23
  call void @_ZN19OpenColorIO_v2_5dev14CreateMatrixOpERNS_10OpRcPtrVecEPKdNS_18TransformDirectionE(ptr noundef nonnull align 8 dereferenceable(144) %1, ptr noundef nonnull @_ZZN19OpenColorIO_v2_5dev11ACES_OUTPUT29Generate_video_adjustment_opsERNS_10OpRcPtrVecEE14DESAT_100_NITS, i32 noundef 0)
  call void @_ZN19OpenColorIO_v2_5dev11ACES_OUTPUT30Generate_sdr_primary_clamp_opsERNS_10OpRcPtrVecERKNS_9PrimariesE(ptr noundef nonnull align 8 dereferenceable(144) %1, ptr noundef nonnull align 8 dereferenceable(64) @_ZN19OpenColorIO_v2_5dev6REC7099primariesE)
  ret void
}